; ModuleID = 'source-C-CXX/41/128.cpp'
source_filename = "source-C-CXX/41/128.cpp"
target datalayout = "e-m:e-p270:32:32-p271:32:32-p272:64:64-i64:64-f80:128-n8:16:32:64-S128"
target triple = "x86_64-pc-linux-gnu"

%"class.std::ios_base::Init" = type { i8 }
%"class.std::basic_istream" = type { i32 (...)**, i64, %"class.std::basic_ios" }
%"class.std::basic_ios" = type { %"class.std::ios_base", %"class.std::basic_ostream"*, i8, i8, %"class.std::basic_streambuf"*, %"class.std::ctype"*, %"class.std::num_put"*, %"class.std::num_get"* }
%"class.std::ios_base" = type { i32 (...)**, i64, i64, i32, i32, i32, %"struct.std::ios_base::_Callback_list"*, %"struct.std::ios_base::_Words", [8 x %"struct.std::ios_base::_Words"], i32, %"struct.std::ios_base::_Words"*, %"class.std::locale" }
%"struct.std::ios_base::_Callback_list" = type { %"struct.std::ios_base::_Callback_list"*, void (i32, %"class.std::ios_base"*, i32)*, i32, i32 }
%"struct.std::ios_base::_Words" = type { i8*, i64 }
%"class.std::locale" = type { %"class.std::locale::_Impl"* }
%"class.std::locale::_Impl" = type { i32, %"class.std::locale::facet"**, i64, %"class.std::locale::facet"**, i8** }
%"class.std::locale::facet" = type <{ i32 (...)**, i32, [4 x i8] }>
%"class.std::basic_ostream" = type { i32 (...)**, %"class.std::basic_ios" }
%"class.std::basic_streambuf" = type { i32 (...)**, i8*, i8*, i8*, i8*, i8*, i8*, %"class.std::locale" }
%"class.std::ctype" = type <{ %"class.std::locale::facet.base", [4 x i8], %struct.__locale_struct*, i8, [7 x i8], i32*, i32*, i16*, i8, [256 x i8], [256 x i8], i8, [6 x i8] }>
%"class.std::locale::facet.base" = type <{ i32 (...)**, i32 }>
%struct.__locale_struct = type { [13 x %struct.__locale_data*], i16*, i32*, i32*, [13 x i8*] }
%struct.__locale_data = type opaque
%"class.std::num_put" = type { %"class.std::locale::facet.base", [4 x i8] }
%"class.std::num_get" = type { %"class.std::locale::facet.base", [4 x i8] }

@_ZStL8__ioinit = internal global %"class.std::ios_base::Init" zeroinitializer, align 1
@__dso_handle = external hidden global i8
@_ZSt3cin = external global %"class.std::basic_istream", align 8
@_ZSt4cout = external global %"class.std::basic_ostream", align 8
@.str = private unnamed_addr constant [2 x i8] c" \00", align 1
@llvm.global_ctors = appending global [1 x { i32, void ()*, i8* }] [{ i32, void ()*, i8* } { i32 65535, void ()* @_GLOBAL__sub_I_128.cpp, i8* null }]

declare void @_ZNSt8ios_base4InitC1Ev(%"class.std::ios_base::Init"* nonnull align 1 dereferenceable(1)) unnamed_addr #0

; Function Attrs: nounwind
declare void @_ZNSt8ios_base4InitD1Ev(%"class.std::ios_base::Init"* nonnull align 1 dereferenceable(1)) unnamed_addr #1

; Function Attrs: nofree nounwind
declare i32 @__cxa_atexit(void (i8*)*, i8*, i8*) local_unnamed_addr #2

; Function Attrs: mustprogress norecurse sspstrong uwtable
define dso_local i32 @main() local_unnamed_addr #3 {
  %1 = alloca [100000 x i32], align 16
  %2 = alloca i32, align 4
  %3 = alloca i32, align 4
  %4 = bitcast [100000 x i32]* %1 to i8*
  call void @llvm.lifetime.start.p0i8(i64 400000, i8* nonnull %4) #7
  call void @llvm.memset.p0i8.i64(i8* noundef nonnull align 16 dereferenceable(400000) %4, i8 0, i64 400000, i1 false)
  %5 = bitcast i32* %2 to i8*
  call void @llvm.lifetime.start.p0i8(i64 4, i8* nonnull %5) #7
  %6 = bitcast i32* %3 to i8*
  call void @llvm.lifetime.start.p0i8(i64 4, i8* nonnull %6) #7
  %7 = call nonnull align 8 dereferenceable(16) %"class.std::basic_istream"* @_ZNSirsERi(%"class.std::basic_istream"* nonnull align 8 dereferenceable(16) @_ZSt3cin, i32* nonnull align 4 dereferenceable(4) %2)
  %8 = load i32, i32* %2, align 4, !tbaa !5
  %9 = icmp sgt i32 %8, 0
  br i1 %9, label %10, label %18

10:                                               ; preds = %0, %10
  %11 = phi i64 [ %14, %10 ], [ 0, %0 ]
  %12 = getelementptr inbounds [100000 x i32], [100000 x i32]* %1, i64 0, i64 %11
  %13 = call nonnull align 8 dereferenceable(16) %"class.std::basic_istream"* @_ZNSirsERi(%"class.std::basic_istream"* nonnull align 8 dereferenceable(16) @_ZSt3cin, i32* nonnull align 4 dereferenceable(4) %12)
  %14 = add nuw nsw i64 %11, 1
  %15 = load i32, i32* %2, align 4, !tbaa !5
  %16 = sext i32 %15 to i64
  %17 = icmp slt i64 %14, %16
  br i1 %17, label %10, label %18, !llvm.loop !9

18:                                               ; preds = %10, %0
  %19 = call nonnull align 8 dereferenceable(16) %"class.std::basic_istream"* @_ZNSirsERi(%"class.std::basic_istream"* nonnull align 8 dereferenceable(16) @_ZSt3cin, i32* nonnull align 4 dereferenceable(4) %3)
  %20 = load i32, i32* %2, align 4, !tbaa !5
  %21 = load i32, i32* %3, align 4
  %22 = icmp sgt i32 %20, 0
  br i1 %22, label %23, label %65

23:                                               ; preds = %18
  %24 = zext i32 %20 to i64
  %25 = and i64 %24, 1
  %26 = icmp eq i32 %20, 1
  br i1 %26, label %50, label %27

27:                                               ; preds = %23
  %28 = and i64 %24, 4294967294
  br label %29

29:                                               ; preds = %91, %27
  %30 = phi i64 [ 0, %27 ], [ %94, %91 ]
  %31 = phi i32 [ 0, %27 ], [ %93, %91 ]
  %32 = phi i32 [ 0, %27 ], [ %92, %91 ]
  %33 = phi i64 [ %28, %27 ], [ %95, %91 ]
  %34 = getelementptr inbounds [100000 x i32], [100000 x i32]* %1, i64 0, i64 %30
  %35 = load i32, i32* %34, align 8, !tbaa !5
  %36 = icmp eq i32 %35, %21
  br i1 %36, label %41, label %37

37:                                               ; preds = %29
  %38 = sext i32 %32 to i64
  %39 = getelementptr inbounds [100000 x i32], [100000 x i32]* %1, i64 0, i64 %38
  store i32 %35, i32* %39, align 4, !tbaa !5
  %40 = add nsw i32 %32, 1
  br label %43

41:                                               ; preds = %29
  %42 = add nsw i32 %31, 1
  br label %43

43:                                               ; preds = %37, %41
  %44 = phi i32 [ %40, %37 ], [ %32, %41 ]
  %45 = phi i32 [ %31, %37 ], [ %42, %41 ]
  %46 = or i64 %30, 1
  %47 = getelementptr inbounds [100000 x i32], [100000 x i32]* %1, i64 0, i64 %46
  %48 = load i32, i32* %47, align 4, !tbaa !5
  %49 = icmp eq i32 %48, %21
  br i1 %49, label %89, label %85

50:                                               ; preds = %91, %23
  %51 = phi i32 [ undef, %23 ], [ %93, %91 ]
  %52 = phi i64 [ 0, %23 ], [ %94, %91 ]
  %53 = phi i32 [ 0, %23 ], [ %93, %91 ]
  %54 = phi i32 [ 0, %23 ], [ %92, %91 ]
  %55 = icmp eq i64 %25, 0
  br i1 %55, label %65, label %56

56:                                               ; preds = %50
  %57 = getelementptr inbounds [100000 x i32], [100000 x i32]* %1, i64 0, i64 %52
  %58 = load i32, i32* %57, align 4, !tbaa !5
  %59 = icmp eq i32 %58, %21
  br i1 %59, label %63, label %60

60:                                               ; preds = %56
  %61 = sext i32 %54 to i64
  %62 = getelementptr inbounds [100000 x i32], [100000 x i32]* %1, i64 0, i64 %61
  store i32 %58, i32* %62, align 4, !tbaa !5
  br label %65

63:                                               ; preds = %56
  %64 = add nsw i32 %53, 1
  br label %65

65:                                               ; preds = %50, %60, %63, %18
  %66 = phi i32 [ 0, %18 ], [ %51, %50 ], [ %53, %60 ], [ %64, %63 ]
  %67 = getelementptr inbounds [100000 x i32], [100000 x i32]* %1, i64 0, i64 0
  %68 = load i32, i32* %67, align 16, !tbaa !5
  %69 = call nonnull align 8 dereferenceable(8) %"class.std::basic_ostream"* @_ZNSolsEi(%"class.std::basic_ostream"* nonnull align 8 dereferenceable(8) @_ZSt4cout, i32 %68)
  %70 = load i32, i32* %2, align 4, !tbaa !5
  %71 = sub nsw i32 %70, %66
  %72 = icmp sgt i32 %71, 1
  br i1 %72, label %73, label %84

73:                                               ; preds = %65, %73
  %74 = phi i64 [ %79, %73 ], [ 1, %65 ]
  %75 = call nonnull align 8 dereferenceable(8) %"class.std::basic_ostream"* @_ZSt16__ostream_insertIcSt11char_traitsIcEERSt13basic_ostreamIT_T0_ES6_PKS3_l(%"class.std::basic_ostream"* nonnull align 8 dereferenceable(8) @_ZSt4cout, i8* nonnull getelementptr inbounds ([2 x i8], [2 x i8]* @.str, i64 0, i64 0), i64 1)
  %76 = getelementptr inbounds [100000 x i32], [100000 x i32]* %1, i64 0, i64 %74
  %77 = load i32, i32* %76, align 4, !tbaa !5
  %78 = call nonnull align 8 dereferenceable(8) %"class.std::basic_ostream"* @_ZNSolsEi(%"class.std::basic_ostream"* nonnull align 8 dereferenceable(8) @_ZSt4cout, i32 %77)
  %79 = add nuw nsw i64 %74, 1
  %80 = load i32, i32* %2, align 4, !tbaa !5
  %81 = sub nsw i32 %80, %66
  %82 = sext i32 %81 to i64
  %83 = icmp slt i64 %79, %82
  br i1 %83, label %73, label %84, !llvm.loop !11

84:                                               ; preds = %73, %65
  call void @llvm.lifetime.end.p0i8(i64 4, i8* nonnull %6) #7
  call void @llvm.lifetime.end.p0i8(i64 4, i8* nonnull %5) #7
  call void @llvm.lifetime.end.p0i8(i64 400000, i8* nonnull %4) #7
  ret i32 0

85:                                               ; preds = %43
  %86 = sext i32 %44 to i64
  %87 = getelementptr inbounds [100000 x i32], [100000 x i32]* %1, i64 0, i64 %86
  store i32 %48, i32* %87, align 4, !tbaa !5
  %88 = add nsw i32 %44, 1
  br label %91

89:                                               ; preds = %43
  %90 = add nsw i32 %45, 1
  br label %91

91:                                               ; preds = %89, %85
  %92 = phi i32 [ %88, %85 ], [ %44, %89 ]
  %93 = phi i32 [ %45, %85 ], [ %90, %89 ]
  %94 = add nuw nsw i64 %30, 2
  %95 = add i64 %33, -2
  %96 = icmp eq i64 %95, 0
  br i1 %96, label %50, label %29, !llvm.loop !12
}

; Function Attrs: argmemonly mustprogress nofree nosync nounwind willreturn
declare void @llvm.lifetime.start.p0i8(i64 immarg, i8* nocapture) #4

; Function Attrs: argmemonly mustprogress nofree nounwind willreturn writeonly
declare void @llvm.memset.p0i8.i64(i8* nocapture writeonly, i8, i64, i1 immarg) #5

declare nonnull align 8 dereferenceable(16) %"class.std::basic_istream"* @_ZNSirsERi(%"class.std::basic_istream"* nonnull align 8 dereferenceable(16), i32* nonnull align 4 dereferenceable(4)) local_unnamed_addr #0

declare nonnull align 8 dereferenceable(8) %"class.std::basic_ostream"* @_ZNSolsEi(%"class.std::basic_ostream"* nonnull align 8 dereferenceable(8), i32) local_unnamed_addr #0

; Function Attrs: argmemonly mustprogress nofree nosync nounwind willreturn
declare void @llvm.lifetime.end.p0i8(i64 immarg, i8* nocapture) #4

declare nonnull align 8 dereferenceable(8) %"class.std::basic_ostream"* @_ZSt16__ostream_insertIcSt11char_traitsIcEERSt13basic_ostreamIT_T0_ES6_PKS3_l(%"class.std::basic_ostream"* nonnull align 8 dereferenceable(8), i8*, i64) local_unnamed_addr #0

; Function Attrs: sspstrong uwtable
define internal void @_GLOBAL__sub_I_128.cpp() #6 section ".text.startup" {
  tail call void @_ZNSt8ios_base4InitC1Ev(%"class.std::ios_base::Init"* nonnull align 1 dereferenceable(1) @_ZStL8__ioinit)
  %1 = tail call i32 @__cxa_atexit(void (i8*)* bitcast (void (%"class.std::ios_base::Init"*)* @_ZNSt8ios_base4InitD1Ev to void (i8*)*), i8* getelementptr inbounds (%"class.std::ios_base::Init", %"class.std::ios_base::Init"* @_ZStL8__ioinit, i64 0, i32 0), i8* nonnull @__dso_handle) #7
  ret void
}


!llvm.module.flags = !{!0, !1, !2, !3}
!llvm.ident = !{!4}

!0 = !{i32 1, !"wchar_size", i32 4}
!1 = !{i32 7, !"PIC Level", i32 2}
!2 = !{i32 7, !"PIE Level", i32 2}
!3 = !{i32 7, !"uwtable", i32 1}
!4 = !{!"clang version 13.0.0"}
!5 = !{!6, !6, i64 0}
!6 = !{!"int", !7, i64 0}
!7 = !{!"omnipotent char", !8, i64 0}
!8 = !{!"Simple C++ TBAA"}
!9 = distinct !{!9, !10}
!10 = !{!"llvm.loop.mustprogress"}
!11 = distinct !{!11, !10}
!12 = distinct !{!12, !10}
